target datalayout = "e-m:e-p270:32:32-p271:32:32-p272:64:64-i64:64-i128:128-f80:128-n8:16:32:64-S128"
target triple = "x86_64-pc-linux-gnu"

%class.svector.1 = type { %class.vector.2 }
%class.vector.2 = type { ptr }
%class.min_cut = type { %class.vector, %class.svector, %class.svector }
%class.vector = type { ptr }
%class.svector = type { %class.vector.0 }
%class.vector.0 = type { ptr }
%"struct.min_cut::edge" = type { i32, i32 }

; Function Attrs: mustprogress nounwind uwtable
define linkonce_odr hidden noundef i32 @_ZNK6vectorIN7min_cut4edgeELb0EjE4sizeEv(ptr noundef nonnull align 8 dereferenceable(8) %0) #5 comdat align 2 {
  %2 = alloca i32, align 4
  %3 = alloca ptr, align 8
  store ptr %0, ptr %3, align 8, !tbaa !18
  %4 = load ptr, ptr %3, align 8
  %5 = getelementptr inbounds nuw %class.vector.2, ptr %4, i32 0, i32 0
  %6 = load ptr, ptr %5, align 8, !tbaa !24
  %7 = icmp eq ptr %6, null
  br i1 %7, label %8, label %9

8:                                                ; preds = %1
  store i32 0, ptr %2, align 4
  br label %14

9:                                                ; preds = %1
  %10 = getelementptr inbounds nuw %class.vector.2, ptr %4, i32 0, i32 0
  %11 = load ptr, ptr %10, align 8, !tbaa !24
  %12 = getelementptr inbounds i32, ptr %11, i64 -1
  %13 = load i32, ptr %12, align 4, !tbaa !16
  store i32 %13, ptr %2, align 4
  br label %14

14:                                               ; preds = %9, %8
  %15 = load i32, ptr %2, align 4
  ret i32 %15
}

; Function Attrs: mustprogress nounwind uwtable
define linkonce_odr hidden noundef i32 @_ZNK6vectorI7svectorIN7min_cut4edgeEjELb1EjE4sizeEv(ptr noundef nonnull align 8 dereferenceable(8) %0) #5 comdat align 2 {
  %2 = alloca i32, align 4
  %3 = alloca ptr, align 8
  store ptr %0, ptr %3, align 8, !tbaa !8
  %4 = load ptr, ptr %3, align 8
  %5 = getelementptr inbounds nuw %class.vector, ptr %4, i32 0, i32 0
  %6 = load ptr, ptr %5, align 8, !tbaa !10
  %7 = icmp eq ptr %6, null
  br i1 %7, label %8, label %9

8:                                                ; preds = %1
  store i32 0, ptr %2, align 4
  br label %14

9:                                                ; preds = %1
  %10 = getelementptr inbounds nuw %class.vector, ptr %4, i32 0, i32 0
  %11 = load ptr, ptr %10, align 8, !tbaa !10
  %12 = getelementptr inbounds i32, ptr %11, i64 -1
  %13 = load i32, ptr %12, align 4, !tbaa !16
  store i32 %13, ptr %2, align 4
  br label %14

14:                                               ; preds = %9, %8
  %15 = load i32, ptr %2, align 4
  ret i32 %15
}

; Function Attrs: mustprogress nounwind uwtable
define linkonce_odr hidden noundef nonnull align 4 dereferenceable(4) ptr @_ZN6vectorIjLb0EjEixEj(ptr noundef nonnull align 8 dereferenceable(8) %0, i32 noundef %1) #5 comdat align 2 {
  %3 = alloca ptr, align 8
  %4 = alloca i32, align 4
  store ptr %0, ptr %3, align 8, !tbaa !20
  store i32 %1, ptr %4, align 4, !tbaa !16
  %5 = load ptr, ptr %3, align 8
  %6 = getelementptr inbounds nuw %class.vector.0, ptr %5, i32 0, i32 0
  %7 = load ptr, ptr %6, align 8, !tbaa !33
  %8 = load i32, ptr %4, align 4, !tbaa !16
  %9 = zext i32 %8 to i64
  %10 = getelementptr inbounds nuw i32, ptr %7, i64 %9
  ret ptr %10
}

; Function Attrs: mustprogress uwtable
define linkonce_odr hidden noundef ptr @_ZN6vectorIN7min_cut4edgeELb0EjE3endEv(ptr noundef nonnull align 8 dereferenceable(8) %0) #4 comdat align 2 {
  %2 = alloca ptr, align 8
  store ptr %0, ptr %2, align 8, !tbaa !18
  %3 = load ptr, ptr %2, align 8
  %4 = getelementptr inbounds nuw %class.vector.2, ptr %3, i32 0, i32 0
  %5 = load ptr, ptr %4, align 8, !tbaa !24
  %6 = call noundef i32 @_ZNK6vectorIN7min_cut4edgeELb0EjE4sizeEv(ptr noundef nonnull align 8 dereferenceable(8) %3)
  %7 = zext i32 %6 to i64
  %8 = getelementptr inbounds nuw %"struct.min_cut::edge", ptr %5, i64 %7
  ret ptr %8
}

; Function Attrs: mustprogress nounwind uwtable
define linkonce_odr hidden noundef ptr @_ZN6vectorIN7min_cut4edgeELb0EjE5beginEv(ptr noundef nonnull align 8 dereferenceable(8) %0) #5 comdat align 2 {
  %2 = alloca ptr, align 8
  store ptr %0, ptr %2, align 8, !tbaa !18
  %3 = load ptr, ptr %2, align 8
  %4 = getelementptr inbounds nuw %class.vector.2, ptr %3, i32 0, i32 0
  %5 = load ptr, ptr %4, align 8, !tbaa !24
  ret ptr %5
}

; Function Attrs: mustprogress nounwind uwtable
define linkonce_odr hidden noundef nonnull align 8 dereferenceable(8) ptr @_ZN6vectorI7svectorIN7min_cut4edgeEjELb1EjEixEj(ptr noundef nonnull align 8 dereferenceable(8) %0, i32 noundef %1) #5 comdat align 2 {
  %3 = alloca ptr, align 8
  %4 = alloca i32, align 4
  store ptr %0, ptr %3, align 8, !tbaa !8
  store i32 %1, ptr %4, align 4, !tbaa !16
  %5 = load ptr, ptr %3, align 8
  %6 = getelementptr inbounds nuw %class.vector, ptr %5, i32 0, i32 0
  %7 = load ptr, ptr %6, align 8, !tbaa !10
  %8 = load i32, ptr %4, align 4, !tbaa !16
  %9 = zext i32 %8 to i64
  %10 = getelementptr inbounds nuw %class.svector.1, ptr %7, i64 %9
  ret ptr %10
}

; Function Attrs: mustprogress uwtable
define hidden noundef i32 @_ZN7min_cut19get_admissible_edgeEj(ptr noundef nonnull align 8 dereferenceable(24) %0, i32 noundef %1) #4 align 2 {
  %3 = alloca i32, align 4
  %4 = alloca ptr, align 8
  %5 = alloca i32, align 4
  %6 = alloca ptr, align 8
  %7 = alloca ptr, align 8
  %8 = alloca ptr, align 8
  %9 = alloca i32, align 4
  %10 = alloca ptr, align 8
  store ptr %0, ptr %4, align 8, !tbaa !3
  store i32 %1, ptr %5, align 4, !tbaa !16
  %11 = load ptr, ptr %4, align 8
  call void @llvm.lifetime.start.p0(i64 8, ptr %6) #3
  %12 = getelementptr inbounds nuw %class.min_cut, ptr %11, i32 0, i32 0
  %13 = load i32, ptr %5, align 4, !tbaa !16
  %14 = call noundef nonnull align 8 dereferenceable(8) ptr @_ZN6vectorI7svectorIN7min_cut4edgeEjELb1EjEixEj(ptr noundef nonnull align 8 dereferenceable(8) %12, i32 noundef %13)
  store ptr %14, ptr %6, align 8, !tbaa !15
  call void @llvm.lifetime.start.p0(i64 8, ptr %7) #3
  %15 = load ptr, ptr %6, align 8, !tbaa !15
  %16 = call noundef ptr @_ZN6vectorIN7min_cut4edgeELb0EjE5beginEv(ptr noundef nonnull align 8 dereferenceable(8) %15)
  store ptr %16, ptr %7, align 8, !tbaa !22
  call void @llvm.lifetime.start.p0(i64 8, ptr %8) #3
  %17 = load ptr, ptr %6, align 8, !tbaa !15
  %18 = call noundef ptr @_ZN6vectorIN7min_cut4edgeELb0EjE3endEv(ptr noundef nonnull align 8 dereferenceable(8) %17)
  store ptr %18, ptr %8, align 8, !tbaa !22
  br label %19

19:                                               ; preds = %51, %2
  %20 = load ptr, ptr %7, align 8, !tbaa !22
  %21 = load ptr, ptr %8, align 8, !tbaa !22
  %22 = icmp ne ptr %20, %21
  br i1 %22, label %24, label %23

23:                                               ; preds = %19
  store i32 2, ptr %9, align 4
  br label %54

24:                                               ; preds = %19
  call void @llvm.lifetime.start.p0(i64 8, ptr %10) #3
  %25 = load ptr, ptr %7, align 8, !tbaa !22
  store ptr %25, ptr %10, align 8, !tbaa !22
  %26 = load ptr, ptr %10, align 8, !tbaa !22
  %27 = getelementptr inbounds nuw %"struct.min_cut::edge", ptr %26, i32 0, i32 1
  %28 = load i32, ptr %27, align 4, !tbaa !29
  %29 = icmp ugt i32 %28, 0
  br i1 %29, label %30, label %47

30:                                               ; preds = %24
  %31 = getelementptr inbounds nuw %class.min_cut, ptr %11, i32 0, i32 1
  %32 = load i32, ptr %5, align 4, !tbaa !16
  %33 = call noundef nonnull align 4 dereferenceable(4) ptr @_ZN6vectorIjLb0EjEixEj(ptr noundef nonnull align 8 dereferenceable(8) %31, i32 noundef %32)
  %34 = load i32, ptr %33, align 4, !tbaa !16
  %35 = getelementptr inbounds nuw %class.min_cut, ptr %11, i32 0, i32 1
  %36 = load ptr, ptr %10, align 8, !tbaa !22
  %37 = getelementptr inbounds nuw %"struct.min_cut::edge", ptr %36, i32 0, i32 0
  %38 = load i32, ptr %37, align 4, !tbaa !27
  %39 = call noundef nonnull align 4 dereferenceable(4) ptr @_ZN6vectorIjLb0EjEixEj(ptr noundef nonnull align 8 dereferenceable(8) %35, i32 noundef %38)
  %40 = load i32, ptr %39, align 4, !tbaa !16
  %41 = add i32 %40, 1
  %42 = icmp eq i32 %34, %41
  br i1 %42, label %43, label %47

43:                                               ; preds = %30
  %44 = load ptr, ptr %10, align 8, !tbaa !22
  %45 = getelementptr inbounds nuw %"struct.min_cut::edge", ptr %44, i32 0, i32 0
  %46 = load i32, ptr %45, align 4, !tbaa !27
  store i32 %46, ptr %3, align 4
  store i32 1, ptr %9, align 4
  br label %48

47:                                               ; preds = %30, %24
  store i32 0, ptr %9, align 4
  br label %48

48:                                               ; preds = %47, %43
  call void @llvm.lifetime.end.p0(i64 8, ptr %10) #3
  %49 = load i32, ptr %9, align 4
  switch i32 %49, label %54 [
    i32 0, label %50
  ]

50:                                               ; preds = %48
  br label %51

51:                                               ; preds = %50
  %52 = load ptr, ptr %7, align 8, !tbaa !22
  %53 = getelementptr inbounds nuw %"struct.min_cut::edge", ptr %52, i32 1
  store ptr %53, ptr %7, align 8, !tbaa !22
  br label %19

54:                                               ; preds = %48, %23
  call void @llvm.lifetime.end.p0(i64 8, ptr %8) #3
  call void @llvm.lifetime.end.p0(i64 8, ptr %7) #3
  call void @llvm.lifetime.end.p0(i64 8, ptr %6) #3
  %55 = load i32, ptr %9, align 4
  switch i32 %55, label %61 [
    i32 2, label %56
    i32 1, label %59
  ]

56:                                               ; preds = %54
  %57 = getelementptr inbounds nuw %class.min_cut, ptr %11, i32 0, i32 0
  %58 = call noundef i32 @_ZNK6vectorI7svectorIN7min_cut4edgeEjELb1EjE4sizeEv(ptr noundef nonnull align 8 dereferenceable(8) %57)
  store i32 %58, ptr %3, align 4
  br label %59

59:                                               ; preds = %56, %54
  %60 = load i32, ptr %3, align 4
  ret i32 %60

61:                                               ; preds = %54
  unreachable
}