; Function Attrs: mustprogress nofree norecurse nosync nounwind willreturn memory(read, inaccessiblemem: none) uwtable
define hidden noundef i32 @_ZN7min_cut19get_admissible_edgeEj(ptr noundef nonnull readonly align 8 captures(none) dereferenceable(24) %0, i32 noundef %1) local_unnamed_addr #7 align 2 {
  %3 = load ptr, ptr %0, align 8, !tbaa !9
  %4 = zext i32 %1 to i64
  %5 = getelementptr inbounds nuw %class.svector.1, ptr %3, i64 %4
  %6 = load ptr, ptr %5, align 8, !tbaa !3
  %7 = icmp eq ptr %6, null
  br i1 %7, label %._crit_edge.thread, label %_ZN6vectorIN7min_cut4edgeELb0EjE3endEv.exit

_ZN6vectorIN7min_cut4edgeELb0EjE3endEv.exit:      ; preds = %2
  %8 = getelementptr inbounds i8, ptr %6, i64 -4
  %9 = load i32, ptr %8, align 4, !tbaa !12
  %10 = zext i32 %9 to i64
  %11 = getelementptr inbounds nuw %"struct.min_cut::edge", ptr %6, i64 %10
  %.not26 = icmp eq i32 %9, 0
  br i1 %.not26, label %._crit_edge.thread, label %.lr.ph

.lr.ph:                                           ; preds = %_ZN6vectorIN7min_cut4edgeELb0EjE3endEv.exit
  %12 = getelementptr inbounds nuw i8, ptr %0, i64 8
  %13 = load ptr, ptr %12, align 8
  %14 = getelementptr inbounds nuw i32, ptr %13, i64 %4
  br label %15

15:                                               ; preds = %.lr.ph, %26
  %.01627 = phi ptr [ %6, %.lr.ph ], [ %27, %26 ]
  %16 = getelementptr inbounds nuw i8, ptr %.01627, i64 4
  %17 = load i32, ptr %16, align 4, !tbaa !25
  %.not17 = icmp eq i32 %17, 0
  br i1 %.not17, label %26, label %18

18:                                               ; preds = %15
  %19 = load i32, ptr %14, align 4, !tbaa !12
  %20 = load i32, ptr %.01627, align 4, !tbaa !27
  %21 = zext i32 %20 to i64
  %22 = getelementptr inbounds nuw i32, ptr %13, i64 %21
  %23 = load i32, ptr %22, align 4, !tbaa !12
  %24 = add i32 %23, 1
  %25 = icmp eq i32 %19, %24
  br i1 %25, label %_ZNK6vectorI7svectorIN7min_cut4edgeEjELb1EjE4sizeEv.exit, label %26

26:                                               ; preds = %18, %15
  %27 = getelementptr inbounds nuw i8, ptr %.01627, i64 8
  %.not = icmp eq ptr %27, %11
  br i1 %.not, label %._crit_edge, label %15

._crit_edge:                                      ; preds = %26
  %28 = icmp eq ptr %3, null
  br i1 %28, label %_ZNK6vectorI7svectorIN7min_cut4edgeEjELb1EjE4sizeEv.exit, label %._crit_edge.thread

._crit_edge.thread:                               ; preds = %2, %_ZN6vectorIN7min_cut4edgeELb0EjE3endEv.exit, %._crit_edge
  %29 = getelementptr inbounds i8, ptr %3, i64 -4
  %30 = load i32, ptr %29, align 4, !tbaa !12
  br label %_ZNK6vectorI7svectorIN7min_cut4edgeEjELb1EjE4sizeEv.exit

_ZNK6vectorI7svectorIN7min_cut4edgeEjELb1EjE4sizeEv.exit: ; preds = %18, %._crit_edge.thread, %._crit_edge
  %.3 = phi i32 [ %30, %._crit_edge.thread ], [ 0, %._crit_edge ], [ %20, %18 ]
  ret i32 %.3
}